; Function Attrs: mustprogress nounwind uwtable
define internal void @_ZN9grpc_core12_GLOBAL__N_124GoogleCloud2ProdResolver14ShutdownLockedEv(ptr nocapture noundef nonnull align 8 dereferenceable(170) %this) unnamed_addr #8 align 2 personality ptr @__gxx_personality_v0 {
entry:
  %shutdown_ = getelementptr inbounds i8, ptr %this, i64 104
  store i8 1, ptr %shutdown_, align 8
  %zone_query_ = getelementptr inbounds i8, ptr %this, i64 112
  %0 = load ptr, ptr %zone_query_, align 8
  store ptr null, ptr %zone_query_, align 8
  %tobool.not.i.i = icmp eq ptr %0, null
  br i1 %tobool.not.i.i, label %_ZNSt10unique_ptrIN9grpc_core13MetadataQueryENS0_16OrphanableDeleteEE5resetEPS1_.exit, label %if.then.i.i

if.then.i.i:                                      ; preds = %entry
  %vtable.i.i.i = load ptr, ptr %0, align 16
  %1 = load ptr, ptr %vtable.i.i.i, align 8
  invoke void %1(ptr noundef nonnull align 16 dereferenceable(176) %0)
          to label %_ZNSt10unique_ptrIN9grpc_core13MetadataQueryENS0_16OrphanableDeleteEE5resetEPS1_.exit unwind label %terminate.lpad.i.i

terminate.lpad.i.i:                               ; preds = %if.then.i.i
  %2 = landingpad { ptr, i32 }
          catch ptr null
  %3 = extractvalue { ptr, i32 } %2, 0
  tail call void @__clang_call_terminate(ptr %3) #20
  unreachable

_ZNSt10unique_ptrIN9grpc_core13MetadataQueryENS0_16OrphanableDeleteEE5resetEPS1_.exit: ; preds = %entry, %if.then.i.i
  %ipv6_query_ = getelementptr inbounds i8, ptr %this, i64 160
  %4 = load ptr, ptr %ipv6_query_, align 8
  store ptr null, ptr %ipv6_query_, align 8
  %tobool.not.i.i1 = icmp eq ptr %4, null
  br i1 %tobool.not.i.i1, label %_ZNSt10unique_ptrIN9grpc_core13MetadataQueryENS0_16OrphanableDeleteEE5resetEPS1_.exit5, label %if.then.i.i2

if.then.i.i2:                                     ; preds = %_ZNSt10unique_ptrIN9grpc_core13MetadataQueryENS0_16OrphanableDeleteEE5resetEPS1_.exit
  %vtable.i.i.i3 = load ptr, ptr %4, align 16
  %5 = load ptr, ptr %vtable.i.i.i3, align 8
  invoke void %5(ptr noundef nonnull align 16 dereferenceable(176) %4)
          to label %_ZNSt10unique_ptrIN9grpc_core13MetadataQueryENS0_16OrphanableDeleteEE5resetEPS1_.exit5 unwind label %terminate.lpad.i.i4

terminate.lpad.i.i4:                              ; preds = %if.then.i.i2
  %6 = landingpad { ptr, i32 }
          catch ptr null
  %7 = extractvalue { ptr, i32 } %6, 0
  tail call void @__clang_call_terminate(ptr %7) #20
  unreachable

_ZNSt10unique_ptrIN9grpc_core13MetadataQueryENS0_16OrphanableDeleteEE5resetEPS1_.exit5: ; preds = %_ZNSt10unique_ptrIN9grpc_core13MetadataQueryENS0_16OrphanableDeleteEE5resetEPS1_.exit, %if.then.i.i2
  %child_resolver_ = getelementptr inbounds i8, ptr %this, i64 64
  %8 = load ptr, ptr %child_resolver_, align 8
  store ptr null, ptr %child_resolver_, align 8
  %tobool.not.i.i6 = icmp eq ptr %8, null
  br i1 %tobool.not.i.i6, label %_ZNSt10unique_ptrIN9grpc_core8ResolverENS0_16OrphanableDeleteEE5resetEPS1_.exit, label %if.then.i.i7

if.then.i.i7:                                     ; preds = %_ZNSt10unique_ptrIN9grpc_core13MetadataQueryENS0_16OrphanableDeleteEE5resetEPS1_.exit5
  %vtable.i.i.i8 = load ptr, ptr %8, align 8
  %9 = load ptr, ptr %vtable.i.i.i8, align 8
  invoke void %9(ptr noundef nonnull align 8 dereferenceable(16) %8)
          to label %_ZNSt10unique_ptrIN9grpc_core8ResolverENS0_16OrphanableDeleteEE5resetEPS1_.exit unwind label %terminate.lpad.i.i9

terminate.lpad.i.i9:                              ; preds = %if.then.i.i7
  %10 = landingpad { ptr, i32 }
          catch ptr null
  %11 = extractvalue { ptr, i32 } %10, 0
  tail call void @__clang_call_terminate(ptr %11) #20
  unreachable

_ZNSt10unique_ptrIN9grpc_core8ResolverENS0_16OrphanableDeleteEE5resetEPS1_.exit: ; preds = %_ZNSt10unique_ptrIN9grpc_core13MetadataQueryENS0_16OrphanableDeleteEE5resetEPS1_.exit5, %if.then.i.i7
  ret void
}